; Function Attrs: mustprogress uwtable
define noundef ptr @_ZNK6icu_7710ICUService3getERKNS_13UnicodeStringEPS1_R10UErrorCode(ptr noundef nonnull align 8 dereferenceable(120) %0, ptr noundef nonnull align 8 dereferenceable(64) %1, ptr noundef %2, ptr noundef nonnull align 4 dereferenceable(4) %3) local_unnamed_addr #0 align 2 {
  %5 = load ptr, ptr %0, align 8, !tbaa !3
  %6 = getelementptr inbounds nuw i8, ptr %5, i64 104
  %7 = load ptr, ptr %6, align 8
  %8 = tail call noundef ptr %7(ptr noundef nonnull align 8 dereferenceable(120) %0, ptr noundef nonnull %1, ptr noundef nonnull align 4 dereferenceable(4) %3)
  %.not = icmp eq ptr %8, null
  br i1 %.not, label %17, label %9

9:                                                ; preds = %4
  %10 = load ptr, ptr %0, align 8, !tbaa !3
  %11 = getelementptr inbounds nuw i8, ptr %10, i64 56
  %12 = load ptr, ptr %11, align 8
  %13 = tail call noundef ptr %12(ptr noundef nonnull align 8 dereferenceable(120) %0, ptr noundef nonnull align 8 dereferenceable(72) %8, ptr noundef %2, ptr noundef nonnull align 4 dereferenceable(4) %3)
  %14 = load ptr, ptr %8, align 8, !tbaa !3
  %15 = getelementptr inbounds nuw i8, ptr %14, i64 8
  %16 = load ptr, ptr %15, align 8
  tail call void %16(ptr noundef nonnull align 8 dereferenceable(72) %8) #17
  br label %17

17:                                               ; preds = %9, %4
  %.0 = phi ptr [ %13, %9 ], [ null, %4 ]
  ret ptr %.0
}